target datalayout = "e-m:e-p270:32:32-p271:32:32-p272:64:64-i64:64-i128:128-f80:128-n8:16:32:64-S128"
target triple = "x86_64-pc-linux-gnu"

%struct.ARKodeMemRec = type { ptr, double, ptr, i32, i32, double, double, ptr, i32, double, ptr, i32, i32, ptr, ptr, i32, ptr, ptr, i32, ptr, ptr, ptr, ptr, ptr, ptr, ptr, ptr, ptr, ptr, ptr, ptr, ptr, ptr, ptr, i32, ptr, ptr, i32, ptr, i32, ptr, ptr, ptr, ptr, ptr, ptr, ptr, ptr, ptr, ptr, ptr, ptr, ptr, ptr, ptr, ptr, ptr, ptr, ptr, ptr, ptr, ptr, ptr, ptr, ptr, ptr, i32, ptr, ptr, ptr, ptr, ptr, ptr, ptr, i32, ptr, ptr, ptr, i32, ptr, ptr, ptr, ptr, ptr, ptr, ptr, i32, i32, i32, i32, double, double, double, double, double, double, double, double, double, double, i32, ptr, i64, i32, i32, i32, i32, i64, i64, i32, i64, i64, i64, i64, i64, i64, i64, double, double, double, double, double, i32, double, double, i32, i32, i32, i32, i32, i32, i32, i32, ptr, i32, ptr, ptr, ptr, ptr, i32, i32, i32 }

; Function Attrs: nounwind uwtable
define i32 @arkRwtSetSS(ptr noundef %0, ptr noundef %1, ptr noundef %2) #0 {
  %4 = alloca i32, align 4
  %5 = alloca ptr, align 8
  %6 = alloca ptr, align 8
  %7 = alloca ptr, align 8
  store ptr %0, ptr %5, align 8, !tbaa !11
  store ptr %1, ptr %6, align 8, !tbaa !7
  store ptr %2, ptr %7, align 8, !tbaa !7
  %8 = load ptr, ptr %6, align 8, !tbaa !7
  %9 = load ptr, ptr %5, align 8, !tbaa !11
  %10 = getelementptr inbounds nuw %struct.ARKodeMemRec, ptr %9, i32 0, i32 79
  %11 = load ptr, ptr %10, align 8, !tbaa !85
  call void @N_VAbs(ptr noundef %8, ptr noundef %11)
  %12 = load ptr, ptr %5, align 8, !tbaa !11
  %13 = getelementptr inbounds nuw %struct.ARKodeMemRec, ptr %12, i32 0, i32 5
  %14 = load double, ptr %13, align 8, !tbaa !79
  %15 = load ptr, ptr %5, align 8, !tbaa !11
  %16 = getelementptr inbounds nuw %struct.ARKodeMemRec, ptr %15, i32 0, i32 79
  %17 = load ptr, ptr %16, align 8, !tbaa !85
  %18 = load ptr, ptr %5, align 8, !tbaa !11
  %19 = getelementptr inbounds nuw %struct.ARKodeMemRec, ptr %18, i32 0, i32 79
  %20 = load ptr, ptr %19, align 8, !tbaa !85
  call void @N_VScale(double noundef %14, ptr noundef %17, ptr noundef %20)
  %21 = load ptr, ptr %5, align 8, !tbaa !11
  %22 = getelementptr inbounds nuw %struct.ARKodeMemRec, ptr %21, i32 0, i32 79
  %23 = load ptr, ptr %22, align 8, !tbaa !85
  %24 = load ptr, ptr %5, align 8, !tbaa !11
  %25 = getelementptr inbounds nuw %struct.ARKodeMemRec, ptr %24, i32 0, i32 9
  %26 = load double, ptr %25, align 8, !tbaa !96
  %27 = load ptr, ptr %5, align 8, !tbaa !11
  %28 = getelementptr inbounds nuw %struct.ARKodeMemRec, ptr %27, i32 0, i32 79
  %29 = load ptr, ptr %28, align 8, !tbaa !85
  call void @N_VAddConst(ptr noundef %23, double noundef %26, ptr noundef %29)
  %30 = load ptr, ptr %5, align 8, !tbaa !11
  %31 = getelementptr inbounds nuw %struct.ARKodeMemRec, ptr %30, i32 0, i32 11
  %32 = load i32, ptr %31, align 8, !tbaa !95
  %33 = icmp ne i32 %32, 0
  br i1 %33, label %34, label %42

34:                                               ; preds = %3
  %35 = load ptr, ptr %5, align 8, !tbaa !11
  %36 = getelementptr inbounds nuw %struct.ARKodeMemRec, ptr %35, i32 0, i32 79
  %37 = load ptr, ptr %36, align 8, !tbaa !85
  %38 = call double @N_VMin(ptr noundef %37)
  %39 = fcmp ole double %38, 0.000000e+00
  br i1 %39, label %40, label %41

40:                                               ; preds = %34
  store i32 -1, ptr %4, align 4
  br label %47

41:                                               ; preds = %34
  br label %42

42:                                               ; preds = %41, %3
  %43 = load ptr, ptr %5, align 8, !tbaa !11
  %44 = getelementptr inbounds nuw %struct.ARKodeMemRec, ptr %43, i32 0, i32 79
  %45 = load ptr, ptr %44, align 8, !tbaa !85
  %46 = load ptr, ptr %7, align 8, !tbaa !7
  call void @N_VInv(ptr noundef %45, ptr noundef %46)
  store i32 0, ptr %4, align 4
  br label %47

47:                                               ; preds = %42, %40
  %48 = load i32, ptr %4, align 4
  ret i32 %48
}